ccopy_reg
_reconstructor
p0
(csklearn.preprocessing.label
LabelEncoder
p1
c__builtin__
object
p2
Ntp3
Rp4
(dp5
S'classes_'
p6
cnumpy.core.multiarray
_reconstruct
p7
(cnumpy
ndarray
p8
(I0
tp9
S'b'
p10
tp11
Rp12
(I1
(I22
tp13
cnumpy
dtype
p14
(S'O8'
p15
I0
I1
tp16
Rp17
(I3
S'|'
p18
NNNI-1
I-1
I63
tp19
bI00
(lp20
S'0.0'
p21
aS'1.0'
p22
aS'10.0'
p23
aS'12.0'
p24
aS'13.0'
p25
aS'14.0'
p26
aS'17.0'
p27
aS'2.0'
p28
aS'3.0'
p29
aS'32.0'
p30
aS'35.0'
p31
aS'4.0'
p32
aS'5.0'
p33
aS'51.0'
p34
aS'52.0'
p35
aS'53.0'
p36
aS'54.0'
p37
aS'59.0'
p38
aS'6.0'
p39
aS'7.0'
p40
aS'8.0'
p41
aS'9.0'
p42
atp43
bsS'_sklearn_version'
p44
S'0.18rc2'
p45
sb.